(lp0
(dp1
S'b'
p2
I32
sS'd'
p3
I1
sS'r2'
p4
cnumpy.core.multiarray
scalar
p5
(cnumpy
dtype
p6
(S'f8'
p7
I0
I1
tp8
Rp9
(I3
S'<'
p10
NNNI-1
I-1
I0
tp11
bS'\x939%\x95h*\xee?'
p12
tp13
Rp14
sS'rmse'
p15
g5
(g9
S"q\r\xfd2'\xb9\x00@"
p16
tp17
Rp18
sS'rZ'
p19
F0.001
sS's'
p20
F0.05
sS'rW'
p21
F0.01
sS'lr'
p22
F0.01
sS'mae'
p23
g5
(g9
S'\x907\xaa\x87Un\xea?'
p24
tp25
Rp26
sa.