(dp0
S'mae'
p1
cnumpy.core.multiarray
scalar
p2
(cnumpy
dtype
p3
(S'f8'
p4
I0
I1
tp5
Rp6
(I3
S'<'
p7
NNNI-1
I-1
I0
tp8
bS'\x8f\xab\x80`4\x03P@'
p9
tp10
Rp11
sS'r2'
p12
g2
(g6
S'\x8c\xc4`9\x06\x82\xc5?'
p13
tp14
Rp15
sS'rmse'
p16
g2
(g6
S'") d\x16\x99X@'
p17
tp18
Rp19
s.(dp0
S'mae'
p1
cnumpy.core.multiarray
scalar
p2
(cnumpy
dtype
p3
(S'f8'
p4
I0
I1
tp5
Rp6
(I3
S'<'
p7
NNNI-1
I-1
I0
tp8
bS'\x8f\xab\x80`4\x03P@'
p9
tp10
Rp11
sS'r2'
p12
g2
(g6
S'\x8c\xc4`9\x06\x82\xc5?'
p13
tp14
Rp15
sS'rmse'
p16
g2
(g6
S'") d\x16\x99X@'
p17
tp18
Rp19
s.(dp0
S'mae'
p1
cnumpy.core.multiarray
scalar
p2
(cnumpy
dtype
p3
(S'f8'
p4
I0
I1
tp5
Rp6
(I3
S'<'
p7
NNNI-1
I-1
I0
tp8
bS',\xe1\xa8\xfe1@J@'
p9
tp10
Rp11
sS'r2'
p12
g2
(g6
S'\\\xde\x01\xf1\xc5!\xe5?'
p13
tp14
Rp15
sS'rmse'
p16
g2
(g6
S'\xf1\xb2\xad\xdd\xb0nO@'
p17
tp18
Rp19
s.(dp0
S'mae'
p1
cnumpy.core.multiarray
scalar
p2
(cnumpy
dtype
p3
(S'f8'
p4
I0
I1
tp5
Rp6
(I3
S'<'
p7
NNNI-1
I-1
I0
tp8
bS'\xef2\xa6\xbc\x19\xfbR@'
p9
tp10
Rp11
sS'r2'
p12
g2
(g6
S'\x94Z^\xf7\x8fF\xcc?'
p13
tp14
Rp15
sS'rmse'
p16
g2
(g6
S'R\xcd\x98j\xb5\xcdW@'
p17
tp18
Rp19
s.(dp0
S'mae'
p1
cnumpy.core.multiarray
scalar
p2
(cnumpy
dtype
p3
(S'f8'
p4
I0
I1
tp5
Rp6
(I3
S'<'
p7
NNNI-1
I-1
I0
tp8
bS'\xb1\x84\xa3\xda\x03\xe5F@'
p9
tp10
Rp11
sS'r2'
p12
g2
(g6
S'HZ@8\xbf\xe5\xe5?'
p13
tp14
Rp15
sS'rmse'
p16
g2
(g6
S'\xdfw\xd5\x08\x1fNN@'
p17
tp18
Rp19
s.(dp0
S'mae'
p1
cnumpy.core.multiarray
scalar
p2
(cnumpy
dtype
p3
(S'f8'
p4
I0
I1
tp5
Rp6
(I3
S'<'
p7
NNNI-1
I-1
I0
tp8
bS'\xb1\x84\xa3\xda\x03\xe5F@'
p9
tp10
Rp11
sS'r2'
p12
g2
(g6
S'HZ@8\xbf\xe5\xe5?'
p13
tp14
Rp15
sS'rmse'
p16
g2
(g6
S'\xdfw\xd5\x08\x1fNN@'
p17
tp18
Rp19
s.(dp0
S'mae'
p1
cnumpy.core.multiarray
scalar
p2
(cnumpy
dtype
p3
(S'f8'
p4
I0
I1
tp5
Rp6
(I3
S'<'
p7
NNNI-1
I-1
I0
tp8
bS'\xb1\x84\xa3\xda\x03\xe5F@'
p9
tp10
Rp11
sS'r2'
p12
g2
(g6
S'HZ@8\xbf\xe5\xe5?'
p13
tp14
Rp15
sS'rmse'
p16
g2
(g6
S'\xdfw\xd5\x08\x1fNN@'
p17
tp18
Rp19
s.(dp0
S'mae'
p1
cnumpy.core.multiarray
scalar
p2
(cnumpy
dtype
p3
(S'f8'
p4
I0
I1
tp5
Rp6
(I3
S'<'
p7
NNNI-1
I-1
I0
tp8
bS'7\xe9.c\xb5 G@'
p9
tp10
Rp11
sS'r2'
p12
g2
(g6
S'\x89\xf0\xae\x14\xa6\xa0\xe5?'
p13
tp14
Rp15
sS'rmse'
p16
g2
(g6
S'.B\t\xad\x13\xb5N@'
p17
tp18
Rp19
s.(dp0
S'mae'
p1
cnumpy.core.multiarray
scalar
p2
(cnumpy
dtype
p3
(S'f8'
p4
I0
I1
tp5
Rp6
(I3
S'<'
p7
NNNI-1
I-1
I0
tp8
bS'\xc1\x90lQ\xf9bX@'
p9
tp10
Rp11
sS'r2'
p12
g2
(g6
S'\xa8(\x9f\nB\xec\xde\xbf'
p13
tp14
Rp15
sS'rmse'
p16
g2
(g6
S'\x1f\x0e\x86>\xe4k`@'
p17
tp18
Rp19
s.(dp0
S'mae'
p1
cnumpy.core.multiarray
scalar
p2
(cnumpy
dtype
p3
(S'f8'
p4
I0
I1
tp5
Rp6
(I3
S'<'
p7
NNNI-1
I-1
I0
tp8
bS'\x9bt\x97\x91I\x07H@'
p9
tp10
Rp11
sS'r2'
p12
g2
(g6
S'\x885:\x82\xaa\x83\xe5?'
p13
tp14
Rp15
sS'rmse'
p16
g2
(g6
S'\xaf\xaa\xa0\x90\xdc\xdfN@'
p17
tp18
Rp19
s.(dp0
S'mae'
p1
cnumpy.core.multiarray
scalar
p2
(cnumpy
dtype
p3
(S'f8'
p4
I0
I1
tp5
Rp6
(I3
S'<'
p7
NNNI-1
I-1
I0
tp8
bS'\x9e\xf6\xb8\n\xc3ZF@'
p9
tp10
Rp11
sS'r2'
p12
g2
(g6
S'\xee2\x17\x8c\x98\xcd\xe6?'
p13
tp14
Rp15
sS'rmse'
p16
g2
(g6
S'\x0e\xba\xaap6\xeaL@'
p17
tp18
Rp19
s.(dp0
S'mae'
p1
cnumpy.core.multiarray
scalar
p2
(cnumpy
dtype
p3
(S'f8'
p4
I0
I1
tp5
Rp6
(I3
S'<'
p7
NNNI-1
I-1
I0
tp8
bS'T\x7f\x9f\xb7\xce\xf6C@'
p9
tp10
Rp11
sS'r2'
p12
g2
(g6
S'\x1b"\xe4\xc2\xe7\xf3\xe8?'
p13
tp14
Rp15
sS'rmse'
p16
g2
(g6
S'K\xaa\xf59\xa3OI@'
p17
tp18
Rp19
s.(dp0
S'mae'
p1
cnumpy.core.multiarray
scalar
p2
(cnumpy
dtype
p3
(S'f8'
p4
I0
I1
tp5
Rp6
(I3
S'<'
p7
NNNI-1
I-1
I0
tp8
bS'\xb1\x84lS\x0e\xfbq@'
p9
tp10
Rp11
sS'r2'
p12
g2
(g6
S'\xb4\x11o\xcbru\x1c\xc0'
p13
tp14
Rp15
sS'rmse'
p16
g2
(g6
S' ^\xc7\xb8\x914s@'
p17
tp18
Rp19
s.(dp0
S'mae'
p1
cnumpy.core.multiarray
scalar
p2
(cnumpy
dtype
p3
(S'f8'
p4
I0
I1
tp5
Rp6
(I3
S'<'
p7
NNNI-1
I-1
I0
tp8
bS'\xb1\x84lS\x0e\xfbq@'
p9
tp10
Rp11
sS'r2'
p12
g2
(g6
S'\xb4\x11o\xcbru\x1c\xc0'
p13
tp14
Rp15
sS'rmse'
p16
g2
(g6
S' ^\xc7\xb8\x914s@'
p17
tp18
Rp19
s.(dp0
S'mae'
p1
cnumpy.core.multiarray
scalar
p2
(cnumpy
dtype
p3
(S'f8'
p4
I0
I1
tp5
Rp6
(I3
S'<'
p7
NNNI-1
I-1
I0
tp8
bS'\xb1\x84lS\x0e\xfbq@'
p9
tp10
Rp11
sS'r2'
p12
g2
(g6
S'\xb4\x11o\xcbru\x1c\xc0'
p13
tp14
Rp15
sS'rmse'
p16
g2
(g6
S' ^\xc7\xb8\x914s@'
p17
tp18
Rp19
s.(dp0
S'mae'
p1
cnumpy.core.multiarray
scalar
p2
(cnumpy
dtype
p3
(S'f8'
p4
I0
I1
tp5
Rp6
(I3
S'<'
p7
NNNI-1
I-1
I0
tp8
bS'\xda\xe3Rr9\xaaq@'
p9
tp10
Rp11
sS'r2'
p12
g2
(g6
S's"\xc9\x95\x8a\x84\x1b\xc0'
p13
tp14
Rp15
sS'rmse'
p16
g2
(g6
S'\xcb\xfc\xe6J\xc6\xecr@'
p17
tp18
Rp19
s.(dp0
S'mae'
p1
cnumpy.core.multiarray
scalar
p2
(cnumpy
dtype
p3
(S'f8'
p4
I0
I1
tp5
Rp6
(I3
S'<'
p7
NNNI-1
I-1
I0
tp8
bS'T\x7f\x9f\xb7\xce\xf6C@'
p9
tp10
Rp11
sS'r2'
p12
g2
(g6
S'\x1b"\xe4\xc2\xe7\xf3\xe8?'
p13
tp14
Rp15
sS'rmse'
p16
g2
(g6
S'K\xaa\xf59\xa3OI@'
p17
tp18
Rp19
s.(dp0
S'mae'
p1
cnumpy.core.multiarray
scalar
p2
(cnumpy
dtype
p3
(S'f8'
p4
I0
I1
tp5
Rp6
(I3
S'<'
p7
NNNI-1
I-1
I0
tp8
bS'\x81`H\xb6\xce\xf6C@'
p9
tp10
Rp11
sS'r2'
p12
g2
(g6
S'\xe4b\x99\xc3\xe7\xf3\xe8?'
p13
tp14
Rp15
sS'rmse'
p16
g2
(g6
S'\x1a+\xb08\xa3OI@'
p17
tp18
Rp19
s.(dp0
S'mae'
p1
cnumpy.core.multiarray
scalar
p2
(cnumpy
dtype
p3
(S'f8'
p4
I0
I1
tp5
Rp6
(I3
S'<'
p7
NNNI-1
I-1
I0
tp8
bS'\x14O{R\xbf\x82g@'
p9
tp10
Rp11
sS'r2'
p12
g2
(g6
S'\xb2\xbc\xe1\xdd\x02\xd7\n\xc0'
p13
tp14
Rp15
sS'rmse'
p16
g2
(g6
S'\x94\x97\x9f\xd9\x98#l@'
p17
tp18
Rp19
s.(dp0
S'mae'
p1
cnumpy.core.multiarray
scalar
p2
(cnumpy
dtype
p3
(S'f8'
p4
I0
I1
tp5
Rp6
(I3
S'<'
p7
NNNI-1
I-1
I0
tp8
bS'\x14O{R\xbf\x82g@'
p9
tp10
Rp11
sS'r2'
p12
g2
(g6
S'\xb2\xbc\xe1\xdd\x02\xd7\n\xc0'
p13
tp14
Rp15
sS'rmse'
p16
g2
(g6
S'\x94\x97\x9f\xd9\x98#l@'
p17
tp18
Rp19
s.(dp0
S'mae'
p1
cnumpy.core.multiarray
scalar
p2
(cnumpy
dtype
p3
(S'f8'
p4
I0
I1
tp5
Rp6
(I3
S'<'
p7
NNNI-1
I-1
I0
tp8
bS'j\x8f\xab\x80\xc4\x0bP@'
p9
tp10
Rp11
sS'r2'
p12
g2
(g6
S'\xb0\\\xa0\xb5\x8c\xa6\xc9?'
p13
tp14
Rp15
sS'rmse'
p16
g2
(g6
S'\x9d\xb4m\xe4c\x1dX@'
p17
tp18
Rp19
s.(dp0
S'mae'
p1
cnumpy.core.multiarray
scalar
p2
(cnumpy
dtype
p3
(S'f8'
p4
I0
I1
tp5
Rp6
(I3
S'<'
p7
NNNI-1
I-1
I0
tp8
bS'\x86d\x8b\xa8D\x0cU@'
p9
tp10
Rp11
sS'r2'
p12
g2
(g6
S'\x90yk\xac\xf9\x8d\xbf?'
p13
tp14
Rp15
sS'rmse'
p16
g2
(g6
S'\xdf\xee^rL@Y@'
p17
tp18
Rp19
s.(dp0
S'mae'
p1
cnumpy.core.multiarray
scalar
p2
(cnumpy
dtype
p3
(S'f8'
p4
I0
I1
tp5
Rp6
(I3
S'<'
p7
NNNI-1
I-1
I0
tp8
bS'\x81`H\xb6\xce\xf6C@'
p9
tp10
Rp11
sS'r2'
p12
g2
(g6
S'\xe4b\x99\xc3\xe7\xf3\xe8?'
p13
tp14
Rp15
sS'rmse'
p16
g2
(g6
S'\x1a+\xb08\xa3OI@'
p17
tp18
Rp19
s.(dp0
S'mae'
p1
cnumpy.core.multiarray
scalar
p2
(cnumpy
dtype
p3
(S'f8'
p4
I0
I1
tp5
Rp6
(I3
S'<'
p7
NNNI-1
I-1
I0
tp8
bS'\x81`H\xb6\xce\xf6C@'
p9
tp10
Rp11
sS'r2'
p12
g2
(g6
S'\xe4b\x99\xc3\xe7\xf3\xe8?'
p13
tp14
Rp15
sS'rmse'
p16
g2
(g6
S'\x1a+\xb08\xa3OI@'
p17
tp18
Rp19
s.(dp0
S'mae'
p1
cnumpy.core.multiarray
scalar
p2
(cnumpy
dtype
p3
(S'f8'
p4
I0
I1
tp5
Rp6
(I3
S'<'
p7
NNNI-1
I-1
I0
tp8
bS'\x81`H\xb6\xce\xf6C@'
p9
tp10
Rp11
sS'r2'
p12
g2
(g6
S'\xe4b\x99\xc3\xe7\xf3\xe8?'
p13
tp14
Rp15
sS'rmse'
p16
g2
(g6
S'\x1a+\xb08\xa3OI@'
p17
tp18
Rp19
s.(dp0
S'mae'
p1
cnumpy.core.multiarray
scalar
p2
(cnumpy
dtype
p3
(S'f8'
p4
I0
I1
tp5
Rp6
(I3
S'<'
p7
NNNI-1
I-1
I0
tp8
bS'\x81`H\xb6\xce\xf6C@'
p9
tp10
Rp11
sS'r2'
p12
g2
(g6
S'\xe4b\x99\xc3\xe7\xf3\xe8?'
p13
tp14
Rp15
sS'rmse'
p16
g2
(g6
S'\x1a+\xb08\xa3OI@'
p17
tp18
Rp19
s.(dp0
S'mae'
p1
cnumpy.core.multiarray
scalar
p2
(cnumpy
dtype
p3
(S'f8'
p4
I0
I1
tp5
Rp6
(I3
S'<'
p7
NNNI-1
I-1
I0
tp8
bS':kP<\x1c\xabJ@'
p9
tp10
Rp11
sS'r2'
p12
g2
(g6
S'"\x81\x1c\x17\xf1.\xe4?'
p13
tp14
Rp15
sS'rmse'
p16
g2
(g6
S"'\xb4&4@cP@"
p17
tp18
Rp19
s.(dp0
S'mae'
p1
cnumpy.core.multiarray
scalar
p2
(cnumpy
dtype
p3
(S'f8'
p4
I0
I1
tp5
Rp6
(I3
S'<'
p7
NNNI-1
I-1
I0
tp8
bS'W\x01\xc1\x10\x7f\xa6K@'
p9
tp10
Rp11
sS'r2'
p12
g2
(g6
S'YF\xe1\xf0\xd75\xe3?'
p13
tp14
Rp15
sS'rmse'
p16
g2
(g6
S'<[\x9e%\x90\x0cQ@'
p17
tp18
Rp19
s.(dp0
S'mae'
p1
cnumpy.core.multiarray
scalar
p2
(cnumpy
dtype
p3
(S'f8'
p4
I0
I1
tp5
Rp6
(I3
S'<'
p7
NNNI-1
I-1
I0
tp8
bS'L\xf9:\xec\xa0+C@'
p9
tp10
Rp11
sS'r2'
p12
g2
(g6
S'\xef\x9eR\xf6og\xe9?'
p13
tp14
Rp15
sS'rmse'
p16
g2
(g6
S'I\xbc2+\xbb|H@'
p17
tp18
Rp19
s.(dp0
S'mae'
p1
cnumpy.core.multiarray
scalar
p2
(cnumpy
dtype
p3
(S'f8'
p4
I0
I1
tp5
Rp6
(I3
S'<'
p7
NNNI-1
I-1
I0
tp8
bS'\xeb\xef\xf36;\x92K@'
p9
tp10
Rp11
sS'r2'
p12
g2
(g6
S'\xac)F\x0b\xf4*\xe3?'
p13
tp14
Rp15
sS'rmse'
p16
g2
(g6
S'\xf7\xff\x19\xc9\xd0\x13Q@'
p17
tp18
Rp19
s.(dp0
S'mae'
p1
cnumpy.core.multiarray
scalar
p2
(cnumpy
dtype
p3
(S'f8'
p4
I0
I1
tp5
Rp6
(I3
S'<'
p7
NNNI-1
I-1
I0
tp8
bS'C\xb2E\xd8\xe6\x10G@'
p9
tp10
Rp11
sS'r2'
p12
g2
(g6
S'\x84\x92\x08\xa1x;\xe6?'
p13
tp14
Rp15
sS'rmse'
p16
g2
(g6
S'Z\xcf\x9aAv\xccM@'
p17
tp18
Rp19
s.(dp0
S'mae'
p1
cnumpy.core.multiarray
scalar
p2
(cnumpy
dtype
p3
(S'f8'
p4
I0
I1
tp5
Rp6
(I3
S'<'
p7
NNNI-1
I-1
I0
tp8
bS'Jw\x19S\xaf`F@'
p9
tp10
Rp11
sS'r2'
p12
g2
(g6
S'\xf0\x9d\xa6f\x0c\x1e\xe8?'
p13
tp14
Rp15
sS'rmse'
p16
g2
(g6
S'\xb2\xc8Q\x97\xee\xc4J@'
p17
tp18
Rp19
s.(dp0
S'mae'
p1
cnumpy.core.multiarray
scalar
p2
(cnumpy
dtype
p3
(S'f8'
p4
I0
I1
tp5
Rp6
(I3
S'<'
p7
NNNI-1
I-1
I0
tp8
bS'R\xfd\xbd\xec,\xd6F@'
p9
tp10
Rp11
sS'r2'
p12
g2
(g6
S'\xea\x18Y<\x8e\x7f\xe6?'
p13
tp14
Rp15
sS'rmse'
p16
g2
(g6
S'\xe8\xb6\x16.\xe4cM@'
p17
tp18
Rp19
s.(dp0
S'mae'
p1
cnumpy.core.multiarray
scalar
p2
(cnumpy
dtype
p3
(S'f8'
p4
I0
I1
tp5
Rp6
(I3
S'<'
p7
NNNI-1
I-1
I0
tp8
bS'y\xda\xe3\xaa\xe2\xa9F@'
p9
tp10
Rp11
sS'r2'
p12
g2
(g6
S'9X\xb0\xa0\x07\x00\xe8?'
p13
tp14
Rp15
sS'rmse'
p16
g2
(g6
S'[P;\x1b\xb7\xf7J@'
p17
tp18
Rp19
s.(dp0
S'mae'
p1
cnumpy.core.multiarray
scalar
p2
(cnumpy
dtype
p3
(S'f8'
p4
I0
I1
tp5
Rp6
(I3
S'<'
p7
NNNI-1
I-1
I0
tp8
bS':kP<\x1c\xabJ@'
p9
tp10
Rp11
sS'r2'
p12
g2
(g6
S'"\x81\x1c\x17\xf1.\xe4?'
p13
tp14
Rp15
sS'rmse'
p16
g2
(g6
S"'\xb4&4@cP@"
p17
tp18
Rp19
s.(dp0
S'mae'
p1
cnumpy.core.multiarray
scalar
p2
(cnumpy
dtype
p3
(S'f8'
p4
I0
I1
tp5
Rp6
(I3
S'<'
p7
NNNI-1
I-1
I0
tp8
bS'\xd8a\tG\xb3\x86G@'
p9
tp10
Rp11
sS'r2'
p12
g2
(g6
S'W1\xc6 \xc5\x92\xe6?'
p13
tp14
Rp15
sS'rmse'
p16
g2
(g6
S'\x1a\x8c\x8a\xaf\x1dFM@'
p17
tp18
Rp19
s.(dp0
S'mae'
p1
cnumpy.core.multiarray
scalar
p2
(cnumpy
dtype
p3
(S'f8'
p4
I0
I1
tp5
Rp6
(I3
S'<'
p7
NNNI-1
I-1
I0
tp8
bS'\x81`H\xb6\xce\xf6C@'
p9
tp10
Rp11
sS'r2'
p12
g2
(g6
S'\xe4b\x99\xc3\xe7\xf3\xe8?'
p13
tp14
Rp15
sS'rmse'
p16
g2
(g6
S'\x1a+\xb08\xa3OI@'
p17
tp18
Rp19
s.(dp0
S'mae'
p1
cnumpy.core.multiarray
scalar
p2
(cnumpy
dtype
p3
(S'f8'
p4
I0
I1
tp5
Rp6
(I3
S'<'
p7
NNNI-1
I-1
I0
tp8
bS',\xe1\xa8\xee\xe6\x88A@'
p9
tp10
Rp11
sS'r2'
p12
g2
(g6
S'F[-\x94\xe5\xd1\xe8?'
p13
tp14
Rp15
sS'rmse'
p16
g2
(g6
S'Q:\x0b\x89\xe7\xb7G@'
p17
tp18
Rp19
s.(dp0
S'mae'
p1
cnumpy.core.multiarray
scalar
p2
(cnumpy
dtype
p3
(S'f8'
p4
I0
I1
tp5
Rp6
(I3
S'<'
p7
NNNI-1
I-1
I0
tp8
bS'T\x7f\x9f\x87\x91s=@'
p9
tp10
Rp11
sS'r2'
p12
g2
(g6
S'q\x00\xc7O\xc5\xbc\xe2?'
p13
tp14
Rp15
sS'rmse'
p16
g2
(g6
S'\xb3l\xfcM\xed\xa3C@'
p17
tp18
Rp19
s.(dp0
S'mae'
p1
cnumpy.core.multiarray
scalar
p2
(cnumpy
dtype
p3
(S'f8'
p4
I0
I1
tp5
Rp6
(I3
S'<'
p7
NNNI-1
I-1
I0
tp8
bS'\x86d\x8b\x08\x8f\xd13@'
p9
tp10
Rp11
sS'r2'
p12
g2
(g6
S'W\x96\x047\t\xa8\xe9?'
p13
tp14
Rp15
sS'rmse'
p16
g2
(g6
S')Rv^\xf6f:@'
p17
tp18
Rp19
s.(dp0
S'mae'
p1
cnumpy.core.multiarray
scalar
p2
(cnumpy
dtype
p3
(S'f8'
p4
I0
I1
tp5
Rp6
(I3
S'<'
p7
NNNI-1
I-1
I0
tp8
bS'S\xbe\x0e\x0b\x01|3@'
p9
tp10
Rp11
sS'r2'
p12
g2
(g6
S'\xd5(\xbd:#\xe8\xe8?'
p13
tp14
Rp15
sS'rmse'
p16
g2
(g6
S'Po1\xab\xf7\xa99@'
p17
tp18
Rp19
s.(dp0
S'mae'
p1
cnumpy.core.multiarray
scalar
p2
(cnumpy
dtype
p3
(S'f8'
p4
I0
I1
tp5
Rp6
(I3
S'<'
p7
NNNI-1
I-1
I0
tp8
bS'\x13\x8e\xea\xef\xd5\xcf1@'
p9
tp10
Rp11
sS'r2'
p12
g2
(g6
S'iS;Zp\x88\xea?'
p13
tp14
Rp15
sS'rmse'
p16
g2
(g6
S'_\x149\x84\xd8\x0f:@'
p17
tp18
Rp19
s.(dp0
S'mae'
p1
cnumpy.core.multiarray
scalar
p2
(cnumpy
dtype
p3
(S'f8'
p4
I0
I1
tp5
Rp6
(I3
S'<'
p7
NNNI-1
I-1
I0
tp8
bS'\xcdY\x83R.\xb91@'
p9
tp10
Rp11
sS'r2'
p12
g2
(g6
S'\x80*|\xe0XD\xe0?'
p13
tp14
Rp15
sS'rmse'
p16
g2
(g6
S'2\xecf\x03\xbft7@'
p17
tp18
Rp19
s.(dp0
S'mae'
p1
cnumpy.core.multiarray
scalar
p2
(cnumpy
dtype
p3
(S'f8'
p4
I0
I1
tp5
Rp6
(I3
S'<'
p7
NNNI-1
I-1
I0
tp8
bS'hz\x12d\x04y\xec?'
p9
tp10
Rp11
sS'r2'
p12
g2
(g6
S'\xa3\xba\xa3\x12t\xa5\xee?'
p13
tp14
Rp15
sS'rmse'
p16
g2
(g6
S'\xca\x9d\xd1\x8e\xd1k\xff?'
p17
tp18
Rp19
s.(dp0
S'mae'
p1
cnumpy.core.multiarray
scalar
p2
(cnumpy
dtype
p3
(S'f8'
p4
I0
I1
tp5
Rp6
(I3
S'<'
p7
NNNI-1
I-1
I0
tp8
bS'r\x0ea\x8aL\xfc\xe2?'
p9
tp10
Rp11
sS'r2'
p12
g2
(g6
S'(+t+m\xed\xee?'
p13
tp14
Rp15
sS'rmse'
p16
g2
(g6
S'\xc4!L\xa5\xf6\xf7\xfb?'
p17
tp18
Rp19
s.(dp0
S'mae'
p1
cnumpy.core.multiarray
scalar
p2
(cnumpy
dtype
p3
(S'f8'
p4
I0
I1
tp5
Rp6
(I3
S'<'
p7
NNNI-1
I-1
I0
tp8
bS'\xd7\xda\xea\xd1\xe2"\xe1?'
p9
tp10
Rp11
sS'r2'
p12
g2
(g6
S'\xcb\xb2P\xa3\x83\xef\xee?'
p13
tp14
Rp15
sS'rmse'
p16
g2
(g6
S'yX\xfc\xc5\xb0\xdc\xfb?'
p17
tp18
Rp19
s.(dp0
S'mae'
p1
cnumpy.core.multiarray
scalar
p2
(cnumpy
dtype
p3
(S'f8'
p4
I0
I1
tp5
Rp6
(I3
S'<'
p7
NNNI-1
I-1
I0
tp8
bS'\xae\x97\xde\xd4G\x1c\xe2?'
p9
tp10
Rp11
sS'r2'
p12
g2
(g6
S'_5v(\x05\xed\xee?'
p13
tp14
Rp15
sS'rmse'
p16
g2
(g6
S'1\xea\x93HB\xfd\xfb?'
p17
tp18
Rp19
s.(dp0
S'mae'
p1
cnumpy.core.multiarray
scalar
p2
(cnumpy
dtype
p3
(S'f8'
p4
I0
I1
tp5
Rp6
(I3
S'<'
p7
NNNI-1
I-1
I0
tp8
bS'n\xa4\xe1\xb0>\x10\xa4@'
p9
tp10
Rp11
sS'r2'
p12
g2
(g6
S'\x07\xd7\xa8\xd2\x8f\x97\x02\xc0'
p13
tp14
Rp15
sS'rmse'
p16
g2
(g6
S'\x99G\xc0`B\xa4\xa7@'
p17
tp18
Rp19
s.(dp0
S'mae'
p1
cnumpy.core.multiarray
scalar
p2
(cnumpy
dtype
p3
(S'f8'
p4
I0
I1
tp5
Rp6
(I3
S'<'
p7
NNNI-1
I-1
I0
tp8
bS'n\xa4\xe1\xb0>\x10\xa4@'
p9
tp10
Rp11
sS'r2'
p12
g2
(g6
S'\x07\xd7\xa8\xd2\x8f\x97\x02\xc0'
p13
tp14
Rp15
sS'rmse'
p16
g2
(g6
S'\x99G\xc0`B\xa4\xa7@'
p17
tp18
Rp19
s.(dp0
S'mae'
p1
cnumpy.core.multiarray
scalar
p2
(cnumpy
dtype
p3
(S'f8'
p4
I0
I1
tp5
Rp6
(I3
S'<'
p7
NNNI-1
I-1
I0
tp8
bS'\n\x97E\x16Y\x84\xa3@'
p9
tp10
Rp11
sS'r2'
p12
g2
(g6
S'\xf9\x10\x187LN\x01\xc0'
p13
tp14
Rp15
sS'rmse'
p16
g2
(g6
S'\x8a>|K\x14\x10\xa7@'
p17
tp18
Rp19
s.(dp0
S'mae'
p1
cnumpy.core.multiarray
scalar
p2
(cnumpy
dtype
p3
(S'f8'
p4
I0
I1
tp5
Rp6
(I3
S'<'
p7
NNNI-1
I-1
I0
tp8
bS'\xbf\xfa\x7f}(.p@'
p9
tp10
Rp11
sS'r2'
p12
g2
(g6
S'$b:@\r\xd4\xed?'
p13
tp14
Rp15
sS'rmse'
p16
g2
(g6
S':\x94s\xccJ\x06{@'
p17
tp18
Rp19
s.(dp0
S'mae'
p1
cnumpy.core.multiarray
scalar
p2
(cnumpy
dtype
p3
(S'f8'
p4
I0
I1
tp5
Rp6
(I3
S'<'
p7
NNNI-1
I-1
I0
tp8
bS'\xbf\xfa\x7f}(.p@'
p9
tp10
Rp11
sS'r2'
p12
g2
(g6
S'$b:@\r\xd4\xed?'
p13
tp14
Rp15
sS'rmse'
p16
g2
(g6
S':\x94s\xccJ\x06{@'
p17
tp18
Rp19
s.(dp0
S'mae'
p1
cnumpy.core.multiarray
scalar
p2
(cnumpy
dtype
p3
(S'f8'
p4
I0
I1
tp5
Rp6
(I3
S'<'
p7
NNNI-1
I-1
I0
tp8
bS'\xdd\xfd!\x83\x1f\xe9\x83@'
p9
tp10
Rp11
sS'r2'
p12
g2
(g6
S'\x01>8\x91j\xd7\xe7?'
p13
tp14
Rp15
sS'rmse'
p16
g2
(g6
S'\xd9\xbaY\x8e\xac0\x8a@'
p17
tp18
Rp19
s.(dp0
S'mae'
p1
cnumpy.core.multiarray
scalar
p2
(cnumpy
dtype
p3
(S'f8'
p4
I0
I1
tp5
Rp6
(I3
S'<'
p7
NNNI-1
I-1
I0
tp8
bS'\\I\x1e^\xba\x85u@'
p9
tp10
Rp11
sS'r2'
p12
g2
(g6
S'\xeck\xcaOj\xfd\xec?'
p13
tp14
Rp15
sS'rmse'
p16
g2
(g6
S'\xebb\x11\xfa\x03\xd1\x7f@'
p17
tp18
Rp19
s.(dp0
S'mae'
p1
cnumpy.core.multiarray
scalar
p2
(cnumpy
dtype
p3
(S'f8'
p4
I0
I1
tp5
Rp6
(I3
S'<'
p7
NNNI-1
I-1
I0
tp8
bS'\x91IY1\xb2\xb3x@'
p9
tp10
Rp11
sS'r2'
p12
g2
(g6
S'J\xf5\t\xb4,S\xec?'
p13
tp14
Rp15
sS'rmse'
p16
g2
(g6
S'\xfd\xf0dY\xef\x93\x81@'
p17
tp18
Rp19
s.(dp0
S'mae'
p1
cnumpy.core.multiarray
scalar
p2
(cnumpy
dtype
p3
(S'f8'
p4
I0
I1
tp5
Rp6
(I3
S'<'
p7
NNNI-1
I-1
I0
tp8
bS'\x91IY1\xb2\xb3x@'
p9
tp10
Rp11
sS'r2'
p12
g2
(g6
S'J\xf5\t\xb4,S\xec?'
p13
tp14
Rp15
sS'rmse'
p16
g2
(g6
S'\xfd\xf0dY\xef\x93\x81@'
p17
tp18
Rp19
s.(dp0
S'mae'
p1
cnumpy.core.multiarray
scalar
p2
(cnumpy
dtype
p3
(S'f8'
p4
I0
I1
tp5
Rp6
(I3
S'<'
p7
NNNI-1
I-1
I0
tp8
bS'\x91IY1\xb2\xb3x@'
p9
tp10
Rp11
sS'r2'
p12
g2
(g6
S'J\xf5\t\xb4,S\xec?'
p13
tp14
Rp15
sS'rmse'
p16
g2
(g6
S'\xfd\xf0dY\xef\x93\x81@'
p17
tp18
Rp19
s.