(dp0
S'mae'
p1
cnumpy.core.multiarray
scalar
p2
(cnumpy
dtype
p3
(S'f8'
p4
I0
I1
tp5
Rp6
(I3
S'<'
p7
NNNI-1
I-1
I0
tp8
bS'\xa0%f\xb2\x14\xce\xf0?'
p9
tp10
Rp11
sS'r2'
p12
g2
(g6
S'`p\xb7n{\x8d\xee?'
p13
tp14
Rp15
sS'rmse'
p16
g2
(g6
S'\xac\xbc\xf4W\xaf>\x00@'
p17
tp18
Rp19
s.